((dp0
V619
p1
VSlim
p2
sV668
p3
VSlim
p4
sV344
p5
VRegular
p6
sV345
p7
VRelaxed
p8
sV346
p9
VRegular
p10
sV347
p11
VRelaxed
p12
sV340
p13
VRegular
p14
sV341
p15
VRelaxed
p16
sV810
p17
VSlim
p18
sV811
p19
VRegular
p20
sV812
p21
VRelaxed
p22
sV813
p23
VSlim
p24
sV348
p25
VOversized
p26
sV349
p27
VRegular
p28
sV816
p29
VRelaxed
p30
sV817
p31
VSlim
p32
sV664
p33
VRegular
p34
sV712
p35
VRelaxed
p36
sV711
p37
VRegular
p38
sV420
p39
VSlim
p40
sV423
p41
VRelaxed
p42
sV1069
p43
VWorkwear
p44
sV1068
p45
VSlim
p46
sV422
p47
VRegular
p48
sV1060
p49
VRelaxed
p50
sV1063
p51
VSlim
p52
sV1062
p53
VStraight
p54
sV1065
p55
VRelaxed
p56
sV1064
p57
VRegular
p58
sV1067
p59
VWetsuit
p60
sV1066
p61
VOversized
p62
sV671
p63
VOversized
p64
sV427
p65
VOversized
p66
sV298
p67
VRegular
p68
sV299
p69
VRelaxed
p70
sV297
p71
VOversized
p72
sV292
p73
VSlim
p74
sV290
p75
VRegular
p76
sV291
p77
VRelaxed
p78
sV1087
p79
VClassical
p80
sV590
p81
VSlim
p82
sV593
p83
VRegular
p84
sV592
p85
VOversized
p86
sV199
p87
VButton-down
p88
sV594
p89
VRelaxed
p90
sV597
p91
VRelaxed
p92
sV596
p93
VRegular
p94
sV599
p95
VOversized
p96
sV598
p97
VSlim
p98
sV197
p99
VStraight
p100
sV1123
p101
VRegular
p102
sV1124
p103
VRelaxed
p104
sV190
p105
VStraight
p106
sV1089
p107
VRegular
p108
sV192
p109
VAnorak
p110
sV275
p111
VRegular
p112
sV276
p113
VRelaxed
p114
sV277
p115
VSlim
p116
sV214
p117
VPolo
p118
sV520
p119
VSlim
p120
sV1010
p121
VSet
p122
sV443
p123
VRegular
p124
sV442
p125
VSlim
p126
sV441
p127
VRelaxed
p128
sV440
p129
VRegular
p130
sV447
p131
VRelaxed
p132
sV446
p133
VRegular
p134
sV445
p135
VSlim
p136
sV444
p137
VRelaxed
p138
sV108
p139
VBolero
p140
sV109
p141
VBustier
p142
sV588
p143
VRegular
p144
sV102
p145
VSport jacket
p146
sV103
p147
VSweatshirt
p148
sV100
p149
VCycling
p150
sV589
p151
VRelaxed
p152
sV107
p153
VBlouson
p154
sV104
p155
VA-line
p156
sV105
p157
VBatwing
p158
sV902
p159
VSlim
p160
sV903
p161
VA-line skirt Slim_Bust
p162
sV39
p163
VSportswear
p164
sV38
p165
VKnitwear
p166
sV906
p167
VA-line skirt Reg_Bust
p168
sV907
p169
VRelaxed
p170
sV904
p171
VRelaxed
p172
sV905
p173
VRegular
p174
sV33
p175
VCoat
p176
sV32
p177
VSportswear
p178
sV31
p179
VJumpsuit
p180
sV30
p181
VTrousers
p182
sV37
p183
VJacket
p184
sV36
p185
VCardigan
p186
sV35
p187
VVest
p188
sV34
p189
VJacket
p190
sV641
p191
VRelaxed
p192
sV640
p193
VRegular
p194
sV643
p195
VRegular
p196
sV642
p197
VSlim
p198
sV645
p199
VRegular
p200
sV644
p201
VSlim
p202
sV438
p203
VSlim
p204
sV439
p205
VOversized
p206
sV436
p207
VRegular
p208
sV437
p209
VRelaxed
p210
sV430
p211
VSlim
p212
sV431
p213
VSlim
p214
sV339
p215
VSlim
p216
sV338
p217
VRelaxed
p218
sV337
p219
VRegular
p220
sV336
p221
VOversized
p222
sV330
p223
VSlim
p224
sV854
p225
VRegular
p226
sV818
p227
VRegular
p228
sV856
p229
VSlim
p230
sV850
p231
VRegular
p232
sV851
p233
VRelaxed
p234
sV852
p235
VSlim
p236
sV819
p237
VRelaxed
p238
sV858
p239
VSlim
p240
sV6
p241
VTrousers
p242
sV43
p243
VTrousers
p244
sV99
p245
VSweater
p246
sV90
p247
VOpen front
p248
sV93
p249
VOpen front
p250
sV94
p251
VPeplum jacket
p252
sV97
p253
VSuit jacket
p254
sV96
p255
VStraight
p256
sV424
p257
VSlim
p258
sV814
p259
VOversized
p260
sV815
p261
VRegular
p262
sV153
p263
VStraight
p264
sV740
p265
VRegular
p266
sV741
p267
VRelaxed
p268
sV743
p269
VRegular
p270
sV744
p271
VRelaxed
p272
sV745
p273
VSlim
p274
sV748
p275
VOversized
p276
sV749
p277
VRegular
p278
sV238
p279
VSkinny_high rise
p280
sV239
p281
VStraight
p282
sV235
p283
VShorts
p284
sV236
p285
VShorts_high rise
p286
sV237
p287
VSkinny
p288
sV230
p289
VBootcut_high rise
p290
sV233
p291
VHarem
p292
sV1050
p293
VRegular
p294
sV1051
p295
VRelaxed
p296
sV1052
p297
VOversized
p298
sV1053
p299
VFitted_Waist_Regular_Bust
p300
sV1054
p301
VSlim
p302
sV1055
p303
VRegular
p304
sV1056
p305
VRelaxed
p306
sV1057
p307
VOversized
p308
sV1058
p309
VA-line
p310
sV1059
p311
VRegular
p312
sV1
p313
VDresses
p314
sV146
p315
VButton-down
p316
sV147
p317
VOpen front
p318
sV618
p319
VRegular
p320
sV145
p321
VStraight
p322
sV142
p323
VBodycon
p324
sV1172
p325
VSlim
p326
sV140
p327
VA-line
p328
sV1170
p329
VRegular
p330
sV612
p331
VRelaxed
p332
sV613
p333
VSlim
p334
sV610
p335
VOversized
p336
sV611
p337
VRegular
p338
sV617
p339
VSlim
p340
sV148
p341
VPop-over
p342
sV149
p343
VA-line
p344
sV1007
p345
VRegular
p346
sV1006
p347
VRelaxed
p348
sV513
p349
VRelaxed
p350
sV512
p351
VRegular
p352
sV948
p353
VOversized
p354
sV949
p355
VIrregular
p356
sV946
p357
VRegular
p358
sV947
p359
VRelaxed
p360
sV944
p361
VBlouse
p362
sV945
p363
VSlim
p364
sV942
p365
VSlim
p366
sV943
p367
VRegular
p368
sV940
p369
VRegular
p370
sV514
p371
VSlim
p372
sV689
p373
VRegular
p374
sV688
p375
VSlim
p376
sV685
p377
VExtra Slim
p378
sV684
p379
VSlim
p380
sV687
p381
VRegular
p382
sV686
p383
VSlim
p384
sV681
p385
VRelaxed
p386
sV680
p387
VRegular
p388
sV683
p389
VExtra Slim
p390
sV682
p391
VSlim
p392
sV498
p393
VOversized
p394
sV499
p395
VRegular
p396
sV494
p397
VSlim
p398
sV495
p399
VRegular
p400
sV496
p401
VSlim
p402
sV490
p403
VExtra Slim
p404
sV491
p405
VOversized
p406
sV492
p407
VRegular
p408
sV493
p409
VRelaxed
p410
sV25
p411
VTwinset
p412
sV26
p413
VVest
p414
sV27
p415
VSkirt
p416
sV20
p417
VJacket
p418
sV21
p419
VKnitwear
p420
sV22
p421
VSportswear
p422
sV23
p423
VTop
p424
sV29
p425
VSportswear
p426
sV407
p427
VOversized
p428
sV939
p429
VSlim
p430
sV938
p431
VClassical
p432
sV400
p433
VSlim
p434
sV933
p435
VSlim
p436
sV932
p437
VStraight
p438
sV931
p439
VRegular
p440
sV930
p441
VSlim
p442
sV937
p443
VRegular
p444
sV936
p445
VSlim
p446
sV409
p447
VRelaxed
p448
sV408
p449
VRegular
p450
sV737
p451
VRelaxed
p452
sV829
p453
VOversized
p454
sV820
p455
VSlim
p456
sV822
p457
VSlim
p458
sV1083
p459
VClassical
p460
sV605
p461
VSlim
p462
sV704
p463
VRegular
p464
sV705
p465
VRelaxed
p466
sV706
p467
VSlim
p468
sV700
p469
VSlim
p470
sV144
p471
VEmpire
p472
sV702
p473
VSlim
p474
sV703
p475
VOversized
p476
sV393
p477
VRelaxed
p478
sV392
p479
VRegular
p480
sV88
p481
VButton-down
p482
sV89
p483
VKimono
p484
sV397
p485
VRelaxed
p486
sV396
p487
VRegular
p488
sV395
p489
VOversized
p490
sV176
p491
VPalazzo_high rise
p492
sV80
p493
VAnorak
p494
sV398
p495
VRegular
p496
sV85
p497
VStraight
p498
sV797
p499
VRegular
p500
sV796
p501
VSlim
p502
sV795
p503
VRelaxed
p504
sV794
p505
VRegular
p506
sV793
p507
VOversized
p508
sV792
p509
VExtra Slim
p510
sV141
p511
VA-line skirt
p512
sV798
p513
VSlim
p514
sV7
p515
VJumpsuits
p516
sV601
p517
VRelaxed
p518
sV587
p519
VOversized
p520
sV1138
p521
VSlim
p522
sV580
p523
VSlim
p524
sV1133
p525
VSlim
p526
sV1132
p527
VShirt_formal
p528
sV1131
p529
VRegular
p530
sV1130
p531
VSlim
p532
sV1137
p533
V"2 -piece bikini"
p534
sV1136
p535
V"2-piece 1st layer"
p536
sV1135
p537
VRelaxed
p538
sV1134
p539
VRegular
p540
sV245
p541
VRegular
p542
sV247
p543
VSlim
p544
sV246
p545
VRelaxed
p546
sV241
p547
VTapered
p548
sV240
p549
VStraight_high rise
p550
sV243
p551
VWide-leg_high rise
p552
sV242
p553
VWide-leg
p554
sV615
p555
VSlim
p556
sV606
p557
VOversized
p558
sV418
p559
VRegular
p560
sV419
p561
VRelaxed
p562
sV519
p563
VRelaxed
p564
sV518
p565
VRegular
p566
sV1009
p567
VSet
p568
sV1008
p569
VRelaxed
p570
sV511
p571
VSlim
p572
sV510
p573
VRelaxed
p574
sV1005
p575
VOversized
p576
sV1004
p577
VRegular
p578
sV1003
p579
VSlim
p580
sV1002
p581
VOversized
p582
sV1001
p583
VOversized
p584
sV1000
p585
VExtra Oversized
p586
sV1128
p587
VUnderwear
p588
sV621
p589
VSlim
p590
sV620
p591
VRegular
p592
sV1129
p593
VCompression bottoms
p594
sV452
p595
VOversized
p596
sV453
p597
VRegular
p598
sV454
p599
VRelaxed
p600
sV455
p601
VRegular
p602
sV456
p603
VSlim
p604
sV1084
p605
VSlim
p606
sV179
p607
VSkinny
p608
sV178
p609
VShorts_high rise
p610
sV177
p611
VShorts
p612
sV595
p613
VSlim
p614
sV175
p615
VPalazzo
p616
sV173
p617
VLeggings_high rise
p618
sV172
p619
VLeggings
p620
sV171
p621
VHarem
p622
sV170
p623
VCulottes_high rise
p624
sV977
p625
VRelaxed
p626
sV976
p627
VRegular
p628
sV975
p629
VTapered
p630
sV974
p631
VRelaxed
p632
sV973
p633
VRegular
p634
sV972
p635
VTapered
p636
sV971
p637
VOversized
p638
sV970
p639
VRelaxed
p640
sV979
p641
VWaistcoat
p642
sV978
p643
VOversized
p644
sV182
p645
VStraight_high rise
p646
sV183
p647
VTapered
p648
sV180
p649
VSkinny_high rise
p650
sV181
p651
VStraight
p652
sV187
p653
VWorkwear
p654
sV184
p655
VWide-leg
p656
sV185
p657
VWide-leg_high rise
p658
sV188
p659
VBib_Shorts
p660
sV189
p661
VBib_Tights
p662
sV1122
p663
VSlim
p664
sV658
p665
VRegular
p666
sV659
p667
VRelaxed
p668
sV650
p669
VRelaxed
p670
sV1125
p671
VGilet
p672
sV1126
p673
VRegular
p674
sV1088
p675
VSlim
p676
sV11
p677
VDress
p678
sV10
p679
VTrousers
p680
sV13
p681
VPlaysuit
p682
sV12
p683
VJumpsuit
p684
sV14
p685
VSportswear
p686
sV17
p687
VJacket
p688
sV16
p689
VCoat
p690
sV19
p691
VCardigan
p692
sV18
p693
VVest
p694
sV863
p695
VRegular
p696
sV862
p697
VSlim
p698
sV865
p699
VRegular
p700
sV864
p701
VSlim
p702
sV867
p703
VRegular
p704
sV866
p705
VRelaxed
p706
sV883
p707
VOversized
p708
sV882
p709
VSlim
p710
sV881
p711
VOversized
p712
sV887
p713
VSlim
p714
sV885
p715
VWetsuit
p716
sV941
p717
VCocoon
p718
sV657
p719
VOversized
p720
sV322
p721
VRegular
p722
sV323
p723
VRelaxed
p724
sV354
p725
VSlim
p726
sV326
p727
VRegular
p728
sV327
p729
VRelaxed
p730
sV324
p731
VSlim
p732
sV325
p733
VOversized
p734
sV328
p735
VSlim
p736
sV329
p737
VSlim
p738
sV201
p739
VOpen front
p740
sV200
p741
VKimono
p742
sV203
p743
VOpen front
p744
sV776
p745
VOversized
p746
sV205
p747
VStraight
p748
sV773
p749
VRegular
p750
sV206
p751
VSuit jacket
p752
sV209
p753
VCycling
p754
sV208
p755
VSweater
p756
sV779
p757
VSlim
p758
sV778
p759
VRelaxed
p760
sV679
p761
VOversized
p762
sV77
p763
VStraight
p764
sV76
p765
VKimono
p766
sV75
p767
VEmpire
p768
sV74
p769
VCocoon
p770
sV73
p771
VA-line skirt
p772
sV72
p773
VA-line
p774
sV567
p775
VOversized
p776
sV79
p777
VWrap
p778
sV1043
p779
VFitted_Waist_Oversized_Bust
p780
sV1042
p781
VFitted_Waist_Relaxed_Bust
p782
sV1041
p783
VRelaxed
p784
sV1040
p785
VRegular
p786
sV1047
p787
VRelaxed
p788
sV1046
p789
VRegular
p790
sV1045
p791
VSlim
p792
sV1044
p793
VOversized
p794
sV1049
p795
VSlim
p796
sV1048
p797
VOversized
p798
sV359
p799
VOversized
p800
sV1142
p801
V"1st layer"
p802
sV1143
p803
VBralette
p804
sV1141
p805
V"1st layer"
p806
sV1146
p807
VRegular
p808
sV1147
p809
VSnow_pants
p810
sV1144
p811
VSlim
p812
sV1145
p813
VSnow_wear
p814
sV667
p815
VSlim
p816
sV666
p817
VSlim
p818
sV1148
p819
VSlim
p820
sV1149
p821
VRegular
p822
sV663
p823
VOversized
p824
sV662
p825
VRelaxed
p826
sV661
p827
VRegular
p828
sV660
p829
VOversized
p830
sV692
p831
VRelaxed
p832
sV693
p833
VRegular
p834
sV690
p835
VSlim
p836
sV691
p837
VRegular
p838
sV694
p839
VRegular
p840
sV698
p841
VRegular
p842
sV699
p843
VRelaxed
p844
sV8
p845
VOuterwear
p846
sV995
p847
VExtra Oversized
p848
sV994
p849
VExtra Oversized
p850
sV997
p851
VRelaxed
p852
sV996
p853
VExtra Oversized
p854
sV991
p855
VRelaxed
p856
sV990
p857
VRegular
p858
sV868
p859
VRegular
p860
sV999
p861
VRelaxed
p862
sV998
p863
VRelaxed
p864
sV120
p865
VRugby
p866
sV121
p867
VShirt
p868
sV122
p869
VTank
p870
sV123
p871
VT-Shirt
p872
sV124
p873
VTube top
p874
sV218
p875
VShirt
p876
sV126
p877
VWrap
p878
sV2
p879
VJumpsuits
p880
sV219
p881
VTank
p882
sV777
p883
VRegular
p884
sV928
p885
VRelaxed
p886
sV929
p887
VClassical
p888
sV417
p889
VOversized
p890
sV410
p891
VSlim
p892
sV411
p893
VRegular
p894
sV412
p895
VRelaxed
p896
sV413
p897
VSlim
p898
sV920
p899
VSlim
p900
sV921
p901
VRegular
p902
sV922
p903
VRelaxed
p904
sV923
p905
VTulip Skirt
p906
sV924
p907
VRegular
p908
sV925
p909
VRelaxed
p910
sV926
p911
VTulip Skirt_high rise
p912
sV927
p913
VRegular
p914
sV677
p915
VRelaxed
p916
sV313
p917
VSlim
p918
sV312
p919
VRelaxed
p920
sV311
p921
VRegular
p922
sV310
p923
VOversized
p924
sV832
p925
VSlim
p926
sV833
p927
VRegular
p928
sV830
p929
VRegular
p930
sV831
p931
VRelaxed
p932
sV836
p933
VSlim
p934
sV834
p935
VSlim
p936
sV835
p937
VRegular
p938
sV3
p939
VOuterwear
p940
sV364
p941
VRelaxed
p942
sV365
p943
VSlim
p944
sV362
p945
VSlim
p946
sV363
p947
VRegular
p948
sV360
p949
VRegular
p950
sV361
p951
VRelaxed
p952
sV861
p953
VRegular
p954
sV382
p955
VRelaxed
p956
sV383
p957
VSlim
p958
sV785
p959
VRegular
p960
sV786
p961
VSlim
p962
sV381
p963
VRegular
p964
sV860
p965
VSlim
p966
sV1164
p967
VSlim
p968
sV579
p969
VRelaxed
p970
sV578
p971
VRegular
p972
sV1165
p973
VOversized
p974
sV573
p975
VRegular
p976
sV572
p977
VOversized
p978
sV570
p979
VSlim
p980
sV577
p981
VOversized
p982
sV1166
p983
VRegular
p984
sV575
p985
VSlim
p986
sV574
p987
VRelaxed
p988
sV60
p989
VWrap
p990
sV63
p991
VWaisted
p992
sV66
p993
VStraight
p994
sV67
p995
VWaisted
p996
sV68
p997
VBib_Shorts
p998
sV69
p999
VBib_Tights
p1000
sV154
p1001
VStraight_high rise
p1002
sV603
p1003
VRegular
p1004
sV602
p1005
VSlim
p1006
sV731
p1007
VSlim
p1008
sV730
p1009
VRelaxed
p1010
sV1038
p1011
VFitted_Waist_Slim_Bust
p1012
sV1039
p1013
VSlim
p1014
sV735
p1015
VOversized
p1016
sV508
p1017
VOversized
p1018
sV509
p1019
VRegular
p1020
sV506
p1021
VSlim
p1022
sV738
p1023
VSlim
p1024
sV504
p1025
VRegular
p1026
sV505
p1027
VRelaxed
p1028
sV503
p1029
VOversized
p1030
sV500
p1031
VRelaxed
p1032
sV501
p1033
VSlim
p1034
sV1171
p1035
VRelaxed
p1036
sV639
p1037
VOversized
p1038
sV900
p1039
VClassical
p1040
sV608
p1041
VRelaxed
p1042
sV901
p1043
VRegular
p1044
sV169
p1045
VCulottes
p1046
sV736
p1047
VRegular
p1048
sV164
p1049
VBootcut
p1050
sV165
p1051
VBootcut_high rise
p1052
sV166
p1053
VBoyfriend
p1054
sV162
p1055
VSweatpants
p1056
sV163
p1057
VYoga
p1058
sV964
p1059
VOversized
p1060
sV966
p1061
VSlim
p1062
sV967
p1063
VSweater_short_sleeve
p1064
sV960
p1065
VRegular
p1066
sV961
p1067
VTapered_Oversized_Bust
p1068
sV962
p1069
VSlim
p1070
sV963
p1071
VRegular
p1072
sV968
p1073
VSlim
p1074
sV969
p1075
VRegular
p1076
sV1107
p1077
VCulottes
p1078
sV1104
p1079
VTights
p1080
sV1105
p1081
VSlim
p1082
sV935
p1083
VClassical
p1084
sV1100
p1085
VCompression bottoms
p1086
sV1101
p1087
VSlim
p1088
sV934
p1089
VRegular
p1090
sV908
p1091
VRegular
p1092
sV909
p1093
VA-line skirt Relaxed_Bust
p1094
sV678
p1095
VSlim
p1096
sV609
p1097
VSlim
p1098
sV1158
p1099
VRegular
p1100
sV874
p1101
VRelaxed
p1102
sV674
p1103
VRelaxed
p1104
sV675
p1105
VOversized
p1106
sV9
p1107
VTopwear
p1108
sV676
p1109
VRegular
p1110
sV892
p1111
VSweater_short_sleeve
p1112
sV893
p1113
VSlim
p1114
sV894
p1115
VRegular
p1116
sV647
p1117
VRegular
p1118
sV896
p1119
VOversized
p1120
sV897
p1121
VA-line
p1122
sV898
p1123
VRegular
p1124
sV899
p1125
VSlim
p1126
sV646
p1127
VSlim
p1128
sV1099
p1129
VUnderwear
p1130
sV649
p1131
VRegular
p1132
sV672
p1133
VRelaxed
p1134
sV648
p1135
VSlim
p1136
sV673
p1137
VOversized
p1138
sV809
p1139
VRelaxed
p1140
sV808
p1141
VRegular
p1142
sV353
p1143
VRelaxed
p1144
sV352
p1145
VRegular
p1146
sV351
p1147
VOversized
p1148
sV350
p1149
VRelaxed
p1150
sV803
p1151
VRegular
p1152
sV802
p1153
VSlim
p1154
sV801
p1155
VRelaxed
p1156
sV800
p1157
VRegular
p1158
sV807
p1159
VOversized
p1160
sV44
p1161
VA-line
p1162
sV805
p1163
VSlim
p1164
sV804
p1165
VRelaxed
p1166
sV216
p1167
VPullover
p1168
sV217
p1169
VRugby
p1170
sV768
p1171
VSlim
p1172
sV212
p1173
VSweatshirt
p1174
sV1085
p1175
VRegular
p1176
sV211
p1177
VSports jacket
p1178
sV42
p1179
VSportswear
p1180
sV760
p1181
VRelaxed
p1182
sV761
p1183
VSlim
p1184
sV766
p1185
VRelaxed
p1186
sV767
p1187
VSlim
p1188
sV764
p1189
VOversized
p1190
sV765
p1191
VRegular
p1192
sV40
p1193
VTop
p1194
sV1078
p1195
VNot covered
p1196
sV1079
p1197
VOversized
p1198
sV1077
p1199
VNot covered
p1200
sV1074
p1201
VKidswear
p1202
sV1072
p1203
VSlim
p1204
sV1073
p1205
VKidswear
p1206
sV1070
p1207
VRegular
p1208
sV1071
p1209
VRelaxed
p1210
sV289
p1211
VSlim
p1212
sV288
p1213
VRelaxed
p1214
sV4
p1215
VTopwear
p1216
sV5
p1217
VSkirts
p1218
sV1120
p1219
VSlim
p1220
sV287
p1221
VRegular
p1222
sV286
p1223
VOversized
p1224
sV1094
p1225
VRegular
p1226
sV1095
p1227
VRelaxed
p1228
sV1096
p1229
VBodysuit
p1230
sV1097
p1231
VCompression bodysuit
p1232
sV1090
p1233
VCompression top
p1234
sV1091
p1235
VSlim
p1236
sV1092
p1237
VSlim
p1238
sV1093
p1239
VA-line
p1240
sV1155
p1241
VFitted Waist_Relaxed Bust
p1242
sV1154
p1243
VFitted Waist_Regular Bust
p1244
sV1157
p1245
VOversized
p1246
sV1156
p1247
VFitted Waist_Slim Bust
p1248
sV1098
p1249
VSlim
p1250
sV1150
p1251
VSnow_pants
p1252
sV1153
p1253
VFitted Waist_Oversized Bust
p1254
sV1152
p1255
VTop/Tunic & Trousers
p1256
sV263
p1257
VRegular
p1258
sV262
p1259
VOversized
p1260
sV266
p1261
VSlim
p1262
sV264
p1263
VRelaxed
p1264
sV1121
p1265
VRegular
p1266
sV58
p1267
VTube top
p1268
sV54
p1269
VEmpire
p1270
sV57
p1271
VShirt dress
p1272
sV50
p1273
VBodycon
p1274
sV775
p1275
VSlim
p1276
sV988
p1277
VWaistcoat
p1278
sV989
p1279
VTapered
p1280
sV774
p1281
VRelaxed
p1282
sV982
p1283
VBustier
p1284
sV983
p1285
VOver-oversized
p1286
sV980
p1287
VSlim
p1288
sV981
p1289
VRegular
p1290
sV986
p1291
VRegular
p1292
sV987
p1293
VRelaxed
p1294
sV984
p1295
VOversized
p1296
sV985
p1297
VTapered_high rise
p1298
sV114
p1299
VEmpire
p1300
sV117
p1301
VPolo
p1302
sV116
p1303
VPeplum
p1304
sV119
p1305
VPullover
p1306
sV429
p1307
VRelaxed
p1308
sV428
p1309
VRegular
p1310
sV919
p1311
VStraight
p1312
sV918
p1313
VRegular
p1314
sV421
p1315
VOversized
p1316
sV914
p1317
VRegular
p1318
sV917
p1319
VSlim
p1320
sV916
p1321
VClassical
p1322
sV911
p1323
VRegular
p1324
sV910
p1325
VRelaxed
p1326
sV913
p1327
VSlim
p1328
sV912
p1329
VClassical
p1330
sV855
p1331
VRelaxed
p1332
sV300
p1333
VSlim
p1334
sV895
p1335
VRelaxed
p1336
sV665
p1337
VRelaxed
p1338
sV846
p1339
VSlim
p1340
sV845
p1341
VRelaxed
p1342
sV844
p1343
VRegular
p1344
sV843
p1345
VOversized
p1346
sV1151
p1347
VRegular
p1348
sV853
p1349
VOversized
p1350
sV849
p1351
VOversized
p1352
sV1127
p1353
VSlim
p1354
sV1159
p1355
VRelaxed
p1356
sV604
p1357
VRelaxed
p1358
sV568
p1359
VRegular
p1360
sV569
p1361
VRelaxed
p1362
sV751
p1363
VSlim
p1364
sV750
p1365
VRelaxed
p1366
sV757
p1367
VRelaxed
p1368
sV756
p1369
VRegular
p1370
sV755
p1371
VOversized
p1372
sV759
p1373
VRegular
p1374
sV758
p1375
VSlim
p1376
sV701
p1377
VSlim
p1378
sV739
p1379
VOversized
p1380
sV229
p1381
VBootcut
p1382
sV228
p1383
VSweatpants
p1384
sV225
p1385
VLeggings
p1386
sV224
p1387
VCycling_shorts/cycling_tights
p1388
sV223
p1389
VPop-over
p1390
sV222
p1391
VOpen front
p1392
sV221
p1393
VButton-down
p1394
sV220
p1395
VT-Shirt
p1396
sV391
p1397
VOversized
p1398
sV1167
p1399
VRelaxed
p1400
sV729
p1401
VRegular
p1402
sV151
p1403
VBodycon
p1404
sV150
p1405
VA-line_high rise
p1406
sV607
p1407
VRegular
p1408
sV152
p1409
VBodycon_high rise
p1410
sV1160
p1411
VSlim
p1412
sV600
p1413
VRegular
p1414
sV1162
p1415
VRegular
p1416
sV1163
p1417
VRelaxed
p1418
sV394
p1419
VSlim
p1420
sV1168
p1421
VSlim
p1422
sV1169
p1423
VOversized
p1424
sV1161
p1425
VOversized
p1426
sV399
p1427
VRelaxed
p1428
sV959
p1429
VSlim
p1430
sV958
p1431
VTapered_Relaxed_Bust
p1432
sV49
p1433
VBlouson
p1434
sV951
p1435
VSlim
p1436
sV950
p1437
VStraight
p1438
sV953
p1439
VRelaxed
p1440
sV952
p1441
VRegular
p1442
sV955
p1443
VClassical
p1444
sV954
p1445
VOversized
p1446
sV957
p1447
VRegular
p1448
sV41
p1449
VVest
p1450
sV1111
p1451
VOversized
p1452
sV1110
p1453
VRelaxed
p1454
sV1115
p1455
VRelaxed
p1456
sV1114
p1457
VPalazzo
p1458
sV1117
p1459
VSuit
p1460
sV1116
p1461
VOversized
p1462
sV1119
p1463
VClassical Reg_bust
p1464
sV1118
p1465
VClassical Slim_bust
p1466
sV869
p1467
VRelaxed
p1468
sV484
p1469
VSlim
p1470
sV483
p1471
VRegular
p1472
sV481
p1473
VSlim
p1474
sV473
p1475
VRegular
p1476
sV474
p1477
VRelaxed
p1478
sV475
p1479
VSlim
p1480
sV479
p1481
VRegular
p1482
s(dp1483
VOversized,F,1,Straight
p1484
V1066
p1485
sVRegular,F,0,Open front
p1486
V815
p1487
sVSlim,F,1,Shorts
p1488
V678
p1489
sVAnorak,C,1,Jacket
p1490
V80
p1491
sVSlim,F,0,Sweater
p1492
V767
p1493
sVRelaxed,F,1,Suit jacket
p1494
V423
p1495
sVRegular,F,1,Culottes_high rise
p1496
V661
p1497
sVSportswear,S,0,Jumpsuits
p1498
V32
p1499
sVExtra Slim,F,1,Skinny_high rise
p1500
V685
p1501
sVSlim,F,1,Pop-over
p1502
V605
p1503
sVSlim,F,1,Fitted Waist_Regular Bust
p1504
V1164
p1505
sVWorkwear,C,1,Jumpsuit
p1506
V187
p1507
sVSnow_pants,C,0,Sportswear
p1508
V1150
p1509
sVRelaxed,F,1,A-line skirt
p1510
V574
p1511
sVRegular,F,1,Blouse
p1512
V946
p1513
sVOversized,F,1,A-line_high rise
p1514
V610
p1515
sVCycling,C,1,Sportswear
p1516
V100
p1517
sVA-line skirt Slim_Bust,C,1,Dress
p1518
V903
p1519
sVBib_Tights,C,0,Sportswear
p1520
V189
p1521
sVRegular,F,0,Classical Slim_bust
p1522
V1123
p1523
sVRegular,F,1,Cocoon
p1524
V943
p1525
sVTrousers,S,0,Trousers
p1526
V43
p1527
sVSlim,F,0,Shorts_high rise
p1528
V856
p1529
sVRegular,F,0,Shorts
p1530
V850
p1531
sVOpen front,C,1,Jacket
p1532
V93
p1533
sVRelaxed,F,0,Workwear
p1534
V1071
p1535
sVWaisted,C,1,Jumpsuit
p1536
V63
p1537
sVBodycon,C,1,Twinset
p1538
V142
p1539
sVCardigan,S,0,Topwear
p1540
V36
p1541
sVRegular,F,0,Rugby
p1542
V797
p1543
sVBodycon,C,1,Dress
p1544
V50
p1545
sVSlim,F,1,Fitted_Waist_Regular_Bust
p1546
V1054
p1547
sVSnow_pants,C,1,Sportswear
p1548
V1147
p1549
sVButton-down,C,1,Cardigan
p1550
V88
p1551
sVSlim,F,1,Tapered_Oversized_Bust
p1552
V962
p1553
sV"1st layer",S,0,Topwear
p1554
V1141
p1555
sVRegular,F,1,A-line skirt Slim_Bust
p1556
V905
p1557
sVRelaxed,F,0,Harem
p1558
V845
p1559
sVRelaxed,F,1,Wrap
p1560
V519
p1561
sVPop-over,C,0,Vest
p1562
V223
p1563
sVSlim,F,0,Compression bottoms
p1564
V1130
p1565
sVRelaxed,F,0,Shirt
p1566
V801
p1567
sVSlim,F,1,Waistcoat
p1568
V980
p1569
sVRegular,F,1,Shorts_high rise
p1570
V680
p1571
sVRegular,F,0,Compression bottoms
p1572
V1131
p1573
sVRelaxed,F,1,Tulip Skirt
p1574
V925
p1575
sVA-line,C,1,Jumpsuit
p1576
V1058
p1577
sVSlim,F,1,Bustier
p1578
V1127
p1579
sVRegular,F,1,Tapered
p1580
V990
p1581
sVSlim,F,0,Bootcut_high rise
p1582
V836
p1583
sVA-line,C,1,Coat
p1584
V72
p1585
sVRegular,F,1,Wide-leg
p1586
V693
p1587
sVPalazzo_high rise,C,1,Trousers
p1588
V176
p1589
sVBodysuit,S,1,Jumpsuits
p1590
V1096
p1591
sVSlim,F,1,Fitted_Waist_Slim_Bust
p1592
V1039
p1593
sVOversized,F,0,Shirt
p1594
V881
p1595
sVSlim,F,1,Leggings_high rise
p1596
V668
p1597
sVClassical,C,1,Coat
p1598
V912
p1599
sVOversized,F,1,Wrap
p1600
V359
p1601
sVSet,T,1,
p1602
V1009
p1603
sVRelaxed,F,0,Sweater_short_sleeve
p1604
V970
p1605
sVOversized,F,1,Fitted Waist_Regular Bust
p1606
V1161
p1607
sVRelaxed,F,1,Cocoon
p1608
V345
p1609
sVKimono,C,0,Cardigan
p1610
V200
p1611
sVOversized,F,1,Sweater
p1612
V427
p1613
sVRelaxed,F,1,Tube top
p1614
V513
p1615
sVSlim,F,0,Harem
p1616
V846
p1617
sVTapered,C,1,Jacket
p1618
V975
p1619
sVSlim,F,1,Bolero
p1620
V456
p1621
sVShorts_high rise,C,1,Trousers
p1622
V178
p1623
sVShorts,C,0,Trousers
p1624
V235
p1625
sVSlim,F,1,Shorts_high rise
p1626
V682
p1627
sVRegular,F,1,Fitted_Waist_Regular_Bust
p1628
V1055
p1629
sVTrousers,T,0,
p1630
V10
p1631
sVA-line skirt,C,1,Twinset
p1632
V141
p1633
sVStraight,C,0,Jacket
p1634
V205
p1635
sVSlim,F,1,Polo
p1636
V484
p1637
sVOversized,F,1,Palazzo
p1638
V671
p1639
sVA-line skirt Relaxed_Bust,C,1,Dress
p1640
V909
p1641
sVRegular,F,1,Blouson
p1642
V453
p1643
sVRegular,F,1,Tapered_Relaxed_Bust
p1644
V960
p1645
sVClassical,C,1,Dress
p1646
V955
p1647
sVKidswear,T,1,
p1648
V1073
p1649
sVSlim,F,1,Fitted_Waist_Relaxed_Bust
p1650
V1049
p1651
sVTop,S,0,Topwear
p1652
V40
p1653
sVStraight,C,1,Skirt
p1654
V153
p1655
sVJacket,S,1,Outerwear
p1656
V17
p1657
sVRelaxed,F,1,Boyfriend
p1658
V650
p1659
sVRelaxed,F,0,Palazzo
p1660
V1115
p1661
sVWrap,C,1,Dress
p1662
V60
p1663
sVBodycon_high rise,C,1,Skirt
p1664
V152
p1665
sVTrousers,S,1,Trousers
p1666
V30
p1667
sVRegular,F,1,Sweatpants
p1668
V640
p1669
sVHarem,C,1,Trousers
p1670
V171
p1671
sVRelaxed,F,1,Shirt
p1672
V500
p1673
sVSportswear,S,1,Jumpsuits
p1674
V14
p1675
sVCycling,C,0,Sportswear
p1676
V209
p1677
sVSlim,F,1,Suit jacket
p1678
V424
p1679
sVOversized,F,1,Anorak
p1680
V964
p1681
sVSlim,F,1,Shirt dress
p1682
V289
p1683
sVWide-leg_high rise,C,1,Trousers
p1684
V185
p1685
sVPop-over,C,1,Vest
p1686
V148
p1687
sVPullover,C,0,Top
p1688
V216
p1689
sVRegular,F,1,Fitted_Waist_Relaxed_Bust
p1690
V1050
p1691
sVSweater,C,1,Knitwear
p1692
V99
p1693
sVRegular,F,1,Wrap
p1694
V518
p1695
sVSlim,F,1,Waisted
p1696
V328
p1697
sVSlim,F,1,A-line skirt
p1698
V575
p1699
sVSlim,F,0,Leggings
p1700
V822
p1701
sVBustier,C,1,Top
p1702
V109
p1703
sVRelaxed,F,1,A-line skirt Reg_Bust
p1704
V907
p1705
sVRelaxed,F,0,Tank
p1706
V804
p1707
sVOversized,F,1,Suit jacket
p1708
V421
p1709
sVTrousers,T,1,
p1710
V6
p1711
sVRegular,F,0,Gilet
p1712
V1126
p1713
sVRelaxed,F,0,Rugby
p1714
V999
p1715
sVRegular,F,0,Pullover
p1716
V794
p1717
sVOversized,F,1,Harem
p1718
V663
p1719
sVRelaxed,F,0,Tapered
p1720
V974
p1721
sVSlim,F,1,Cocoon
p1722
V942
p1723
sVPlaysuit,S,1,Jumpsuits
p1724
V13
p1725
sVVest,S,1,Topwear
p1726
V26
p1727
sVRegular,F,0,Kimono
p1728
V740
p1729
sVOversized,F,1,Cocoon
p1730
V984
p1731
sVSlim,F,0,Waistcoat
p1732
V1003
p1733
sVRelaxed,F,1,Shorts_high rise
p1734
V681
p1735
sVSkinny_high rise,C,0,Trousers
p1736
V238
p1737
sVSlim,F,0,Rugby
p1738
V798
p1739
sVAnorak,C,0,Jacket
p1740
V192
p1741
sVShirt,C,1,Top
p1742
V121
p1743
sVButton-down,C,1,Vest
p1744
V146
p1745
sVTop/Tunic & Trousers,S,1,Set
p1746
V1152
p1747
sVSlim,F,0,Pullover
p1748
V796
p1749
sVRelaxed,F,1,Fitted Waist_Relaxed Bust
p1750
V1167
p1751
sVSweatpants,C,1,Sportswear
p1752
V162
p1753
sVRelaxed,F,1,Palazzo
p1754
V672
p1755
sVSet,T,0,
p1756
V1010
p1757
sVRegular,F,0,Snow_wear
p1758
V1146
p1759
sVOpen front,C,0,Jacket
p1760
V203
p1761
sVRegular,F,1,Shorts
p1762
V676
p1763
sVRelaxed,F,1,Workwear
p1764
V699
p1765
sVOver-oversized,F,1,A-line
p1766
V983
p1767
sVDresses,T,1,
p1768
V1
p1769
sVOversized,F,1,T-Shirt
p1770
V508
p1771
sVRegular,F,0,Tank
p1772
V803
p1773
sVShirt_formal,C,0,Top
p1774
V1132
p1775
sVFitted Waist_Slim Bust,C,1,Top/Tunic & Trousers
p1776
V1156
p1777
sVTapered,C,1,Coat
p1778
V989
p1779
sVSlim,F,1,Bootcut_high rise
p1780
V648
p1781
sVOversized,F,0,Pullover
p1782
V793
p1783
sVCocoon,C,1,Dress
p1784
V941
p1785
sVRegular,F,1,A-line skirt Relaxed_Bust
p1786
V911
p1787
sVSlim,F,1,Tank
p1788
V506
p1789
sVWaisted,C,1,Playsuit
p1790
V67
p1791
sVSweater_short_sleeve,C,1,Knitwear
p1792
V892
p1793
sVTapered_Oversized_Bust,C,1,Dress
p1794
V961
p1795
sVRelaxed,F,1,Tulip Skirt_high rise
p1796
V928
p1797
sVOpen front,C,0,Vest
p1798
V222
p1799
sVKnitwear,S,0,Topwear
p1800
V38
p1801
sVRegular,F,1,Pullover
p1802
V492
p1803
sVOversized,F,1,A-line
p1804
V1079
p1805
sVRegular,F,1,T-Shirt
p1806
V509
p1807
sVOuterwear,T,1,
p1808
V3
p1809
sVOversized,F,0,Shorts
p1810
V849
p1811
sVFitted Waist_Relaxed Bust,C,1,Top/Tunic & Trousers
p1812
V1155
p1813
sVStraight,C,0,Vest
p1814
V932
p1815
sVBootcut_high rise,C,1,Trousers
p1816
V165
p1817
sVSlim,F,0,Classical Slim_bust
p1818
V1122
p1819
sVRegular,F,1,Fitted_Waist_Slim_Bust
p1820
V1040
p1821
sVRelaxed,F,1,T-Shirt
p1822
V510
p1823
sVSlim,F,1,Sweatshirt
p1824
V442
p1825
sVRelaxed,F,1,Empire
p1826
V589
p1827
sVSlim,F,0,Pop-over
p1828
V820
p1829
sVRelaxed,F,1,Open front
p1830
V601
p1831
sVSlim,F,1,Rugby
p1832
V496
p1833
sVRegular,F,1,Bootcut_high rise
p1834
V647
p1835
sVSlim,F,1,Anorak
p1836
V365
p1837
sVTulip Skirt_high rise,C,1,Skirt
p1838
V926
p1839
sVRelaxed,F,0,Sweatshirt
p1840
V778
p1841
sVRegular,F,1,Peplum jacket
p1842
V411
p1843
sVRegular,F,0,Bootcut
p1844
V833
p1845
sVStraight,C,1,Twinset
p1846
V145
p1847
sVTube top,C,1,Top
p1848
V124
p1849
sVSlim,F,1,Compression bodysuit
p1850
V1098
p1851
sVRegular,F,1,Snow_pants
p1852
V1149
p1853
sVOversized,F,1,Fitted Waist_Slim Bust
p1854
V1169
p1855
sVRelaxed,F,1,A-line skirt Relaxed_Bust
p1856
V910
p1857
sVRelaxed,F,1,Harem
p1858
V665
p1859
sVRelaxed,F,1,Palazzo_high rise
p1860
V674
p1861
sVT-Shirt,C,0,Top
p1862
V220
p1863
sVCulottes_high rise,C,1,Trousers
p1864
V170
p1865
sVBoyfriend,C,1,Trousers
p1866
V166
p1867
sVHarem,C,0,Trousers
p1868
V233
p1869
sVExtra Oversized,F,0,Shirt
p1870
V1000
p1871
sVRelaxed,F,0,Anorak
p1872
V712
p1873
sVRegular,F,0,Harem
p1874
V844
p1875
sVOpen front,C,1,Cardigan
p1876
V90
p1877
sVSlim,F,1,Sweater_short_sleeve
p1878
V893
p1879
sVTank,C,0,Top
p1880
V219
p1881
sVRegular,F,1,Boyfriend
p1882
V649
p1883
sVTube top,C,1,Dress
p1884
V58
p1885
sVSlim,F,0,Skinny_high rise
p1886
V860
p1887
sVRegular,F,1,Polo
p1888
V483
p1889
sVSlim,F,1,Compression top
p1890
V1091
p1891
sVStraight,C,1,Playsuit
p1892
V66
p1893
sVSkinny,C,1,Trousers
p1894
V179
p1895
sVSlim,F,0,Button-down
p1896
V813
p1897
sVOversized,F,1,Culottes
p1898
V657
p1899
sVSlim,F,1,Harem
p1900
V666
p1901
sVA-line_high rise,C,1,Skirt
p1902
V150
p1903
sVRegular,F,1,Harem
p1904
V1007
p1905
sVRegular,F,0,Sweater_short_sleeve
p1906
V969
p1907
sVSnow_wear,C,0,Sportswear
p1908
V1145
p1909
sVRegular,F,1,Bodycon
p1910
V578
p1911
sVClassical,C,0,Jacket
p1912
V1087
p1913
sVJumpsuit,S,1,Jumpsuits
p1914
V12
p1915
sVRegular,F,0,Sweater
p1916
V765
p1917
sVSportswear,S,0,Trousers
p1918
V42
p1919
sVOpen front,C,1,Vest
p1920
V147
p1921
sVOversized,F,1,Fitted_Waist_Relaxed_Bust
p1922
V1052
p1923
sVSlim,F,0,Shirt_formal
p1924
V1133
p1925
sVRelaxed,F,1,Fitted_Waist_Regular_Bust
p1926
V1056
p1927
sVWetsuit,C,0,Jumpsuit
p1928
V1067
p1929
sVSlim,F,1,Snow_pants
p1930
V1148
p1931
sVEmpire,C,1,Coat
p1932
V75
p1933
sVTopwear,T,1,
p1934
V4
p1935
sVTop,S,1,Topwear
p1936
V23
p1937
sVOversized,F,1,Blouse
p1938
V948
p1939
sVSlim,F,1,Wetsuit
p1940
V887
p1941
sVT-Shirt,C,1,Top
p1942
V123
p1943
sVRegular,F,0,Tapered
p1944
V973
p1945
sVPeplum,C,1,Top
p1946
V116
p1947
sVSlim,F,1,Workwear
p1948
V700
p1949
sVCompression top,C,1,Sportswear
p1950
V1090
p1951
sVBralette,C,1,"1st layer"
p1952
V1143
p1953
sVTulip Skirt,C,1,Skirt
p1954
V923
p1955
sVSlim,F,0,Polo
p1956
V786
p1957
sVRegular,F,1,Tank
p1958
V504
p1959
sVBodycon,C,1,Skirt
p1960
V151
p1961
sVBlouse,C,1,Top
p1962
V944
p1963
sVStraight,C,1,Dress
p1964
V950
p1965
sVOversized,F,1,Open front
p1966
V883
p1967
sVExtra Slim,F,1,Pullover
p1968
V490
p1969
sVEmpire,C,1,Top
p1970
V114
p1971
sVKidswear,T,0,
p1972
V1074
p1973
sVRelaxed,F,1,Sweatshirt
p1974
V441
p1975
sVRegular,F,0,Sports jacket
p1976
V773
p1977
sVOversized,F,0,Sweater
p1978
V764
p1979
sVRegular,F,1,Culottes
p1980
V658
p1981
sVStraight,C,0,Trousers
p1982
V239
p1983
sVRelaxed,F,1,Tank
p1984
V505
p1985
sVShirt dress,C,1,Dress
p1986
V57
p1987
sVGilet,C,0,Sportswear
p1988
V1125
p1989
sVButton-down,C,0,Cardigan
p1990
V199
p1991
sVOversized,F,1,Blouson
p1992
V452
p1993
sVSkinny_high rise,C,1,Trousers
p1994
V180
p1995
sVSport jacket,C,1,Sportswear
p1996
V102
p1997
sVExtra Oversized,F,1,Shirt dress
p1998
V996
p1999
sVBootcut_high rise,C,0,Trousers
p2000
V230
p2001
sVBib_Shorts,C,0,Sportswear
p2002
V188
p2003
sVRegular,F,1,Open front
p2004
V600
p2005
sVOversized,F,0,Straight
p2006
V755
p2007
sVSlim,F,1,Tights
p2008
V1105
p2009
sVRelaxed,F,0,Suit jacket
p2010
V760
p2011
sVRegular,F,1,Sweatshirt
p2012
V440
p2013
sVSlim,F,1,Classical
p2014
V1092
p2015
sVClassical Reg_bust,C,0,Suit
p2016
V1119
p2017
sVRelaxed,F,1,Sweater_short_sleeve
p2018
V895
p2019
sVRegular,F,1,Tulip Skirt_high rise
p2020
V927
p2021
sVRelaxed,F,0,Shirt_formal
p2022
V1135
p2023
sVRegular,F,1,Peplum
p2024
V479
p2025
sVSlim,F,0,Shirt
p2026
V802
p2027
sVSlim,F,0,Workwear
p2028
V1072
p2029
sVA-line,C,1,Dress
p2030
V44
p2031
sVSweatpants,C,0,Sportswear
p2032
V228
p2033
sVRegular,F,1,Suit jacket
p2034
V422
p2035
sVPolo,C,0,Top
p2036
V214
p2037
sVOversized,F,1,Shirt dress
p2038
V286
p2039
sVSportswear,S,1,Trousers
p2040
V29
p2041
sVSlim,F,1,Straight
p2042
V1063
p2043
sVTapered,C,0,Jacket
p2044
V972
p2045
sVRelaxed,F,1,Fitted_Waist_Oversized_Bust
p2046
V1047
p2047
sVNot covered,T,1,
p2048
V1077
p2049
sVRelaxed,F,0,Sports jacket
p2050
V774
p2051
sVCocoon,C,1,Coat
p2052
V74
p2053
sVSuit jacket,C,0,Jacket
p2054
V206
p2055
sVRegular,F,1,Pop-over
p2056
V603
p2057
sVRegular,F,0,Anorak
p2058
V711
p2059
sVVest,S,0,Outerwear
p2060
V35
p2061
sVRelaxed,F,0,Culottes
p2062
V1110
p2063
sVButton-down,C,0,Vest
p2064
V221
p2065
sVRegular,F,0,A-line
p2066
V1094
p2067
sVOversized,F,1,A-line skirt
p2068
V572
p2069
sVRegular,F,1,Yoga
p2070
V643
p2071
sVRegular,F,1,Bootcut
p2072
V645
p2073
sVWaistcoat,C,1,Vest
p2074
V979
p2075
sVOversized,F,0,Sweatpants
p2076
V829
p2077
sVStraight,C,1,Vest
p2078
V919
p2079
sVRegular,F,0,Snow_pants
p2080
V1151
p2081
sVRelaxed,F,1,Peplum jacket
p2082
V412
p2083
sVRelaxed,F,1,Blouse
p2084
V947
p2085
sVSlim,F,1,Skinny_high rise
p2086
V686
p2087
sVRelaxed,F,1,Button-down
p2088
V597
p2089
sVRelaxed,F,1,Sport jacket
p2090
V437
p2091
sVRelaxed,F,1,Bodycon
p2092
V579
p2093
sVSkinny,C,0,Trousers
p2094
V237
p2095
sVRegular,F,0,Sweatpants
p2096
V830
p2097
sVSlim,F,0,Open front
p2098
V817
p2099
sVEmpire,C,1,Dress
p2100
V54
p2101
sVOversized,F,0,Button-down
p2102
V735
p2103
sVRegular,F,1,Waisted
p2104
V326
p2105
sVJacket,S,1,Topwear
p2106
V20
p2107
sVRelaxed,F,0,Pullover
p2108
V795
p2109
sVOversized,F,1,Fitted_Waist_Oversized_Bust
p2110
V1048
p2111
sVSlim,F,1,Bodycon
p2112
V615
p2113
sVSlim,F,1,A-line_high rise
p2114
V613
p2115
sVOversized,F,1,Fitted_Waist_Slim_Bust
p2116
V1044
p2117
sVTapered_high rise,C,1,Trousers
p2118
V985
p2119
sVRegular,F,1,Waistcoat
p2120
V981
p2121
sVKimono,C,1,Cardigan
p2122
V89
p2123
sVSlim,F,1,Fitted Waist_Oversized Bust
p2124
V1160
p2125
sVSuit jacket,C,1,Jacket
p2126
V97
p2127
sVSlim,F,1,Sweater
p2128
V430
p2129
sVRegular,F,1,Fitted Waist_Regular Bust
p2130
V1162
p2131
sVDress,S,1,Dresses
p2132
V11
p2133
sVOversized,F,1,Kimono
p2134
V395
p2135
sVBootcut,C,1,Trousers
p2136
V164
p2137
sVRelaxed,F,1,Pop-over
p2138
V604
p2139
sVWrap,C,1,Top
p2140
V126
p2141
sVRelaxed,F,1,A-line
p2142
V1060
p2143
sVSlim,F,1,Sweatpants
p2144
V642
p2145
sVCulottes,C,0,Trousers
p2146
V1107
p2147
sVRegular,F,1,Fitted Waist_Oversized Bust
p2148
V1158
p2149
sVPolo,C,1,Top
p2150
V117
p2151
sVRelaxed,F,0,Pop-over
p2152
V819
p2153
sVSweatshirt,C,1,Sportswear
p2154
V103
p2155
sVCoat,S,0,Outerwear
p2156
V33
p2157
sVRegular,F,1,Fitted Waist_Slim Bust
p2158
V1170
p2159
sVOversized,F,0,Open front
p2160
V1002
p2161
sVStraight_high rise,C,1,Skirt
p2162
V154
p2163
sVFitted Waist_Oversized Bust,C,1,Top/Tunic & Trousers
p2164
V1153
p2165
sVRelaxed,F,1,Shorts
p2166
V677
p2167
sVBib_Tights,C,1,Sportswear
p2168
V69
p2169
sVOversized,F,1,Shorts_high rise
p2170
V679
p2171
sVSlim,F,1,Cycling
p2172
V431
p2173
sVRegular,F,0,Bootcut_high rise
p2174
V835
p2175
sVShorts,C,1,Trousers
p2176
V177
p2177
sVKimono,C,1,Coat
p2178
V76
p2179
sVSlim,F,1,Shirt
p2180
V501
p2181
sVSlim,F,0,Sweatshirt
p2182
V779
p2183
sVRegular,F,0,Workwear
p2184
V1070
p2185
sVSlim,F,1,A-line
p2186
V899
p2187
sVPalazzo,C,1,Trousers
p2188
V175
p2189
sVSlim,F,0,Classical Reg_bust
p2190
V1120
p2191
sVCompression bodysuit,C,1,Bodysuit
p2192
V1097
p2193
sVRelaxed,F,0,Straight
p2194
V1006
p2195
sVSlim,F,1,Bootcut
p2196
V646
p2197
sVSlim,F,0,Bootcut
p2198
V834
p2199
sVWide-leg_high rise,C,0,Trousers
p2200
V243
p2201
sVLeggings,C,0,Sportswear
p2202
V225
p2203
sVOversized,F,0,Tank
p2204
V1001
p2205
sVRelaxed,F,1,Fitted Waist_Slim Bust
p2206
V1171
p2207
sVClassical,C,0,Coat
p2208
V929
p2209
sVRegular,F,1,Fitted Waist_Relaxed Bust
p2210
V1166
p2211
sVRegular,F,0,T-Shirt
p2212
V808
p2213
sVCardigan,S,1,Topwear
p2214
V19
p2215
sVOversized,F,0,Harem
p2216
V843
p2217
sVSlim,F,1,Pullover
p2218
V494
p2219
sVYoga,C,1,Sportswear
p2220
V163
p2221
sVBib_Shorts,C,1,Sportswear
p2222
V68
p2223
sVSuit,S,0,Jumpsuits
p2224
V1117
p2225
sVSlim,F,0,Wetsuit
p2226
V1068
p2227
sVClassical,C,0,Vest
p2228
V935
p2229
sVClassical,C,1,Vest
p2230
V916
p2231
sVOversized,F,1,Tank
p2232
V503
p2233
sVRegular,F,0,Wide-leg_high rise
p2234
V868
p2235
sVRelaxed,F,1,Sweater
p2236
V429
p2237
sVExtra Slim,F,0,Pullover
p2238
V792
p2239
sVSlim,F,1,Bib_Tights
p2240
V330
p2241
sVRegular,F,1,Kimono
p2242
V396
p2243
sVSlim,F,1,Fitted Waist_Slim Bust
p2244
V1172
p2245
sVTopwear,T,0,
p2246
V9
p2247
sVOversized,F,1,Empire
p2248
V587
p2249
sVStraight,C,1,Coat
p2250
V77
p2251
sVIrregular,C,1,Dress
p2252
V949
p2253
sVStraight,C,1,Trousers
p2254
V181
p2255
sVSlim,F,0,Classical
p2256
V1088
p2257
sVRegular,F,1,Straight_high rise
p2258
V689
p2259
sVWetsuit,C,1,Jumpsuit
p2260
V885
p2261
sVExtra Slim,F,1,Skinny
p2262
V683
p2263
sVTights,C,1,Underwear
p2264
V1104
p2265
sVRegular,F,0,Waistcoat
p2266
V1004
p2267
sVRegular,F,0,Shirt
p2268
V800
p2269
sVRegular,F,0,Classical
p2270
V1089
p2271
sVRegular,F,1,Workwear
p2272
V698
p2273
sVBustier,C,1,Dress
p2274
V982
p2275
sVRelaxed,F,0,Button-down
p2276
V812
p2277
sVTank,C,1,Top
p2278
V122
p2279
sVUnderwear,S,1,Trousers
p2280
V1099
p2281
sVSports jacket,C,0,Sportswear
p2282
V211
p2283
sVJacket,S,0,Outerwear
p2284
V34
p2285
sVSlim,F,0,Cycling
p2286
V768
p2287
sVRelaxed,F,1,Straight
p2288
V1065
p2289
sVVest,S,1,Outerwear
p2290
V18
p2291
sVSlim,F,1,Tapered_Relaxed_Bust
p2292
V959
p2293
sVA-line,C,1,Jacket
p2294
V897
p2295
sVRelaxed,F,0,Kimono
p2296
V741
p2297
sVA-line skirt Reg_Bust,C,1,Dress
p2298
V906
p2299
sVSlim,F,0,Sweater_short_sleeve
p2300
V968
p2301
sVSlim,F,0,Cycling_shorts/cycling_tights
p2302
V966
p2303
sVFitted_Waist_Oversized_Bust,C,1,Jumpsuit
p2304
V1043
p2305
sVWide-leg,C,0,Trousers
p2306
V242
p2307
sVTapered,C,1,Trousers
p2308
V183
p2309
sVRegular,F,1,A-line skirt
p2310
V573
p2311
sVOversized,F,1,Bodycon
p2312
V577
p2313
sVStraight_high rise,C,1,Trousers
p2314
V182
p2315
sVRegular,F,1,Classical
p2316
V1085
p2317
sVBlouson,C,1,Dress
p2318
V49
p2319
sVSlim,F,1,"2 -piece bikini"
p2320
V1138
p2321
sVOversized,F,1,Culottes_high rise
p2322
V660
p2323
sVSlim,F,1,Open front
p2324
V602
p2325
sVOversized,F,0,Shorts_high rise
p2326
V853
p2327
sVShirt,C,0,Top
p2328
V218
p2329
sVRegular,F,1,Empire
p2330
V588
p2331
sVSlim,F,0,Skinny
p2332
V858
p2333
sVSlim,F,0,Sweatpants
p2334
V832
p2335
sVSlim,F,0,Straight_high rise
p2336
V864
p2337
sVRegular,F,1,Shirt dress
p2338
V287
p2339
sVRelaxed,F,0,A-line
p2340
V1095
p2341
sVRegular,F,0,Button-down
p2342
V811
p2343
sVOversized,F,1,Sweatshirt
p2344
V439
p2345
sVOversized,F,1,Pullover
p2346
V491
p2347
sVRegular,F,0,Classical Reg_bust
p2348
V1121
p2349
sVRegular,F,1,Bolero
p2350
V455
p2351
sVStraight,C,1,Jacket
p2352
V96
p2353
sVRelaxed,F,0,Sweater
p2354
V766
p2355
sVRegular,F,1,Batwing
p2356
V446
p2357
sV"1st layer",S,1,Topwear
p2358
V1142
p2359
sVOversized,F,1,Waisted
p2360
V325
p2361
sVRegular,F,1,Sweater_short_sleeve
p2362
V894
p2363
sVRegular,F,0,Suit jacket
p2364
V759
p2365
sVRegular,F,1,Button-down
p2366
V596
p2367
sVOversized,F,1,Shorts
p2368
V675
p2369
sVWaistcoat,C,0,Vest
p2370
V988
p2371
sVBatwing,C,1,Top
p2372
V105
p2373
sVRelaxed,F,1,A-line skirt Slim_Bust
p2374
V904
p2375
sVA-line skirt,C,1,Coat
p2376
V73
p2377
sVRelaxed,F,0,Open front
p2378
V816
p2379
sVRelaxed,F,1,Batwing
p2380
V447
p2381
sVCoat,S,1,Outerwear
p2382
V16
p2383
sVTapered_Relaxed_Bust,C,1,Dress
p2384
V958
p2385
sVRelaxed,F,1,Pullover
p2386
V493
p2387
sVRelaxed,F,1,Shirt dress
p2388
V288
p2389
sVNot covered,T,0,
p2390
V1078
p2391
sVSlim,F,1,Bib_Shorts
p2392
V329
p2393
sVOversized,F,0,Culottes
p2394
V1111
p2395
sVRegular,F,1,Sport jacket
p2396
V436
p2397
sVBootcut,C,0,Trousers
p2398
V229
p2399
sVExtra Oversized,F,1,Shirt
p2400
V994
p2401
sVCycling_shorts/cycling_tights,C,0,Sportswear
p2402
V224
p2403
sVOversized,F,0,T-Shirt
p2404
V807
p2405
sVSkirt,S,1,Skirts
p2406
V27
p2407
sVRelaxed,F,1,Tapered
p2408
V991
p2409
sV"2-piece 1st layer",S,1,Set
p2410
V1136
p2411
sVOversized,F,1,Palazzo_high rise
p2412
V673
p2413
sVRugby,C,1,Top
p2414
V120
p2415
sVRegular,F,1,A-line skirt Reg_Bust
p2416
V908
p2417
sVRelaxed,F,0,Classical Slim_bust
p2418
V1124
p2419
sVRegular,F,1,Anorak
p2420
V363
p2421
sVRelaxed,F,1,Anorak
p2422
V364
p2423
sVRelaxed,F,0,Polo
p2424
V874
p2425
sVBlouson,C,1,Top
p2426
V107
p2427
sVOversized,F,0,Palazzo
p2428
V1116
p2429
sVLeggings,C,1,Trousers
p2430
V172
p2431
sVSlim,F,1,Wrap
p2432
V520
p2433
sVStraight,C,1,Jumpsuit
p2434
V1062
p2435
sVJumpsuit,S,0,Jumpsuits
p2436
V31
p2437
sVSlim,F,1,T-Shirt
p2438
V511
p2439
sVRelaxed,F,0,Shorts_high rise
p2440
V855
p2441
sVCompression bottoms,C,0,Underwear
p2442
V1129
p2443
sVWide-leg,C,1,Trousers
p2444
V184
p2445
sVRegular,F,1,Straight
p2446
V1064
p2447
sV"2 -piece bikini",C,1,"2-piece 1st layer"
p2448
V1137
p2449
sVSlim,F,1,Fitted_Waist_Oversized_Bust
p2450
V1045
p2451
sVA-line,C,1,Skirt
p2452
V149
p2453
sVOversized,F,0,Kimono
p2454
V739
p2455
sVClassical,C,1,Jacket
p2456
V1083
p2457
sVRegular,F,1,Tapered_high rise
p2458
V986
p2459
sVRelaxed,F,1,Sweatpants
p2460
V641
p2461
sVSweater,C,0,Knitwear
p2462
V208
p2463
sVRelaxed,F,1,Fitted_Waist_Slim_Bust
p2464
V1041
p2465
sVA-line,C,1,Top
p2466
V104
p2467
sVRegular,F,1,A-line_high rise
p2468
V611
p2469
sVSlim,F,1,Bodycon_high rise
p2470
V617
p2471
sVSlim,F,0,Suit jacket
p2472
V761
p2473
sVUnderwear,S,0,Trousers
p2474
V1128
p2475
sVRugby,C,0,Top
p2476
V217
p2477
sVSlim,F,0,T-Shirt
p2478
V810
p2479
sVSlim,F,1,Skinny
p2480
V684
p2481
sVSlim,F,1,Fitted Waist_Relaxed Bust
p2482
V1168
p2483
sVStraight_high rise,C,0,Trousers
p2484
V240
p2485
sVLeggings_high rise,C,1,Trousers
p2486
V173
p2487
sVOversized,F,1,Fitted Waist_Oversized Bust
p2488
V1157
p2489
sVSportswear,S,1,Topwear
p2490
V22
p2491
sVSlim,F,0,Shorts
p2492
V852
p2493
sVShorts_high rise,C,0,Trousers
p2494
V236
p2495
sVRegular,F,1,Tube top
p2496
V512
p2497
sVSlim,F,1,Straight_high rise
p2498
V690
p2499
sVRegular,F,1,Fitted_Waist_Oversized_Bust
p2500
V1046
p2501
sVSlim,F,1,Leggings
p2502
V667
p2503
sVSlim,F,1,Button-down
p2504
V598
p2505
sVSlim,F,1,Tube top
p2506
V514
p2507
sVA-line,C,1,Twinset
p2508
V140
p2509
sVA-line,C,0,Coat
p2510
V1093
p2511
sVSlim,F,1,Bralette
p2512
V1144
p2513
sVPullover,C,1,Top
p2514
V119
p2515
sVSlim,F,1,Blouse
p2516
V945
p2517
sVRegular,F,1,Tulip Skirt
p2518
V924
p2519
sVSkirts,T,1,
p2520
V5
p2521
sVRelaxed,F,1,Culottes_high rise
p2522
V662
p2523
sVRegular,F,1,Shirt
p2524
V499
p2525
sVSweater_short_sleeve,C,0,Knitwear
p2526
V967
p2527
sVRelaxed,F,0,T-Shirt
p2528
V809
p2529
sVRelaxed,F,1,Tapered_high rise
p2530
V987
p2531
sVPeplum jacket,C,1,Jacket
p2532
V94
p2533
sVOversized,F,1,Fitted_Waist_Regular_Bust
p2534
V1057
p2535
sVTwinset,S,1,Topwear
p2536
V25
p2537
sVSlim,F,1,Yoga
p2538
V644
p2539
sVKnitwear,S,1,Topwear
p2540
V21
p2541
sVSlim,F,0,Sports jacket
p2542
V775
p2543
sVFitted Waist_Regular Bust,C,1,Top/Tunic & Trousers
p2544
V1154
p2545
sVRelaxed,F,1,Fitted Waist_Oversized Bust
p2546
V1159
p2547
sVRegular,F,0,Polo
p2548
V785
p2549
sVCulottes,C,1,Trousers
p2550
V169
p2551
sVFitted_Waist_Slim_Bust,C,1,Jumpsuit
p2552
V1038
p2553
sVOversized,F,1,Sweatpants
p2554
V639
p2555
sVRelaxed,F,1,Blouson
p2556
V454
p2557
sVBolero,C,1,Top
p2558
V108
p2559
sVEmpire,C,1,Twinset
p2560
V144
p2561
sVOversized,F,1,Sweater_short_sleeve
p2562
V896
p2563
sVRelaxed,F,1,Kimono
p2564
V397
p2565
sVFitted_Waist_Regular_Bust,C,1,Jumpsuit
p2566
V1053
p2567
sVRegular,F,0,Shorts_high rise
p2568
V854
p2569
sVRegular,F,1,A-line
p2570
V1059
p2571
sVSlim,F,1,Peplum jacket
p2572
V413
p2573
sVOversized,F,1,Fitted Waist_Relaxed Bust
p2574
V1165
p2575
sVSportswear,S,0,Topwear
p2576
V39
p2577
sVCompression bottoms,C,1,Underwear
p2578
V1100
p2579
sVRelaxed,F,1,Waisted
p2580
V327
p2581
sVClassical Slim_bust,C,0,Suit
p2582
V1118
p2583
sVSlim,F,1,Peplum
p2584
V481
p2585
sVRelaxed,F,0,Shorts
p2586
V851
p2587
sVStraight,C,0,Coat
p2588
V190
p2589
sVOversized,F,0,Anorak
p2590
V1005
p2591
sVRelaxed,F,1,Polo
p2592
V1008
p2593
sVSlim,F,0,Bib_Shorts
p2594
V701
p2595
sVRegular,F,0,Shirt_formal
p2596
V1134
p2597
sVRegular,F,1,Wide-leg_high rise
p2598
V694
p2599
sVExtra Oversized,F,1,Straight
p2600
V995
p2601
sVSweatshirt,C,0,Sportswear
p2602
V212
p2603
sVSlim,F,1,Compression bottoms
p2604
V1101
p2605
sVRegular,F,0,Pop-over
p2606
V818
p2607
sVSlim,F,0,Bib_Tights
p2608
V702
p2609
sVOversized,F,1,Button-down
p2610
V391
p2611
sVRegular,F,0,Sweatshirt
p2612
V777
p2613
sVPalazzo,C,0,Trousers
p2614
V1114
p2615
sVRelaxed,F,1,Culottes
p2616
V659
p2617
sVWrap,C,1,Coat
p2618
V79
p2619
sVWorkwear,C,0,Jumpsuit
p2620
V1069
p2621
sVOpen front,C,0,Cardigan
p2622
V201
p2623
sVRelaxed,F,1,A-line_high rise
p2624
V612
p2625
sVFitted_Waist_Relaxed_Bust,C,1,Jumpsuit
p2626
V1042
p2627
sVSlim,F,1,Empire
p2628
V590
p2629
sVRegular,F,1,Tapered_Oversized_Bust
p2630
V963
p2631
sVTapered,C,0,Trousers
p2632
V241
p2633
sVRegular,F,0,Straight_high rise
p2634
V863
p2635
sVRegular,F,0,Wide-leg
p2636
V867
p2637
sVJacket,S,0,Topwear
p2638
V37
p2639
sVRelaxed,F,1,Rugby
p2640
V998
p2641
sVSlim,F,0,Tank
p2642
V805
p2643
sVSlim,F,1,Batwing
p2644
V882
p2645
sVRegular,F,1,Rugby
p2646
V495
p2647
sVRegular,F,1,Sweater
p2648
V428
p2649
sVRelaxed,F,0,Sweatpants
p2650
V831
p2651
sVJumpsuits,T,0,
p2652
V7
p2653
sVRegular,F,0,Straight
p2654
V934
p2655
sVRelaxed,F,1,Fitted Waist_Regular Bust
p2656
V1163
p2657
sVJumpsuits,T,1,
p2658
V2
p2659
sVSlim,F,1,Sport jacket
p2660
V438
p2661
sVRelaxed,F,1,Fitted_Waist_Relaxed_Bust
p2662
V1051
p2663
sVVest,S,0,Topwear
p2664
V41
p2665
sVSlim,F,0,Straight
p2666
V933
p2667
sVOversized,F,1,Shirt
p2668
V498
p2669
sVOversized,F,0,Sweater_short_sleeve
p2670
V971
p2671
sVOuterwear,T,0,
p2672
V8
p2673
sVOversized,F,0,Sweatshirt
p2674
V776
p2675
stp2676
.